; Function Attrs: mustprogress uwtable
define void @_ZN8QuantLib24PartialTimeBarrierOption9argumentsC1Ev(ptr noundef nonnull align 8 dereferenceable(72) %this) unnamed_addr #9 align 2 personality ptr @__gxx_personality_v0 {
invoke.cont4:
  %retval.i = alloca %"class.QuantLib::Date", align 8
  %payoff.i = getelementptr inbounds nuw i8, ptr %this, i64 8
  tail call void @llvm.memset.p0.i64(ptr noundef nonnull align 8 dereferenceable(32) %payoff.i, i8 0, i64 32, i1 false)
  store ptr getelementptr inbounds inrange(-40, 24) (i8, ptr @_ZTVN8QuantLib24PartialTimeBarrierOption9argumentsE, i64 40), ptr %this, align 8, !tbaa !33
  %barrierType = getelementptr inbounds nuw i8, ptr %this, i64 40
  store i32 -1, ptr %barrierType, align 8, !tbaa !68
  %barrierRange = getelementptr inbounds nuw i8, ptr %this, i64 44
  store i32 -1, ptr %barrierRange, align 4, !tbaa !71
  %barrier = getelementptr inbounds nuw i8, ptr %this, i64 48
  store double 0x47EFFFFFE0000000, ptr %barrier, align 8, !tbaa !72
  %rebate = getelementptr inbounds nuw i8, ptr %this, i64 56
  store double 0x47EFFFFFE0000000, ptr %rebate, align 8, !tbaa !73
  call void @llvm.lifetime.start.p0(i64 8, ptr nonnull %retval.i)
  invoke void @_ZN8QuantLib4DateC1Ev(ptr noundef nonnull align 8 dereferenceable(8) %retval.i)
          to label %invoke.cont8 unwind label %lpad7

invoke.cont8:                                     ; preds = %invoke.cont4
  %0 = load i64, ptr %retval.i, align 8
  call void @llvm.lifetime.end.p0(i64 8, ptr nonnull %retval.i)
  %coverEventDate = getelementptr inbounds nuw i8, ptr %this, i64 64
  store i64 %0, ptr %coverEventDate, align 8
  ret void

lpad7:                                            ; preds = %invoke.cont4
  %1 = landingpad { ptr, i32 }
          cleanup
  call void @_ZN8QuantLib6Option9argumentsD2Ev(ptr noundef nonnull align 8 dereferenceable(40) %this, ptr noundef nonnull getelementptr inbounds (i8, ptr @_ZTTN8QuantLib24PartialTimeBarrierOption9argumentsE, i64 8)) #25
  resume { ptr, i32 } %1
}